target datalayout = "e-m:e-p270:32:32-p271:32:32-p272:64:64-i64:64-i128:128-f80:128-n8:16:32:64-S128"
target triple = "x86_64-pc-linux-gnu"

%"class.base::FileEnumerator" = type { %"class.std::vector", i64, %"class.base::FilePath", i8, i32, %"class.std::__cxx11::basic_string", %"class.std::stack" }
%"class.std::vector" = type { %"struct.std::_Vector_base" }
%"struct.std::_Vector_base" = type { %"struct.std::_Vector_base<base::FileEnumerator::FileInfo, std::allocator<base::FileEnumerator::FileInfo>>::_Vector_impl" }
%"struct.std::_Vector_base<base::FileEnumerator::FileInfo, std::allocator<base::FileEnumerator::FileInfo>>::_Vector_impl" = type { %"struct.std::_Vector_base<base::FileEnumerator::FileInfo, std::allocator<base::FileEnumerator::FileInfo>>::_Vector_impl_data" }
%"struct.std::_Vector_base<base::FileEnumerator::FileInfo, std::allocator<base::FileEnumerator::FileInfo>>::_Vector_impl_data" = type { ptr, ptr, ptr }
%"class.base::FilePath" = type { %"class.std::__cxx11::basic_string" }
%"class.std::__cxx11::basic_string" = type { %"struct.std::__cxx11::basic_string<char>::_Alloc_hider", i64, %union.anon }
%"struct.std::__cxx11::basic_string<char>::_Alloc_hider" = type { ptr }
%union.anon = type { i64, [8 x i8] }
%"class.std::stack" = type { %"class.std::deque" }
%"class.std::deque" = type { %"class.std::_Deque_base" }
%"class.std::_Deque_base" = type { %"struct.std::_Deque_base<base::FilePath, std::allocator<base::FilePath>>::_Deque_impl" }
%"struct.std::_Deque_base<base::FilePath, std::allocator<base::FilePath>>::_Deque_impl" = type { %"struct.std::_Deque_base<base::FilePath, std::allocator<base::FilePath>>::_Deque_impl_data" }
%"struct.std::_Deque_base<base::FilePath, std::allocator<base::FilePath>>::_Deque_impl_data" = type { ptr, i64, %"struct.std::_Deque_iterator", %"struct.std::_Deque_iterator" }
%"struct.std::_Deque_iterator" = type { ptr, ptr, ptr, ptr }

; Function Attrs: mustprogress nounwind uwtable
define available_externally noundef i64 @_ZNKSt7__cxx1112basic_stringIcSt11char_traitsIcESaIcEE4sizeEv(ptr noundef nonnull align 8 dereferenceable(32) %0) #3 align 2 {
  %2 = alloca ptr, align 8
  store ptr %0, ptr %2, align 8, !tbaa !17
  %3 = load ptr, ptr %2, align 8
  %4 = getelementptr inbounds nuw %"class.std::__cxx11::basic_string", ptr %3, i32 0, i32 1
  %5 = load i64, ptr %4, align 8, !tbaa !32
  ret i64 %5
}

; Function Attrs: mustprogress nounwind uwtable
define available_externally noundef zeroext i1 @_ZNKSt7__cxx1112basic_stringIcSt11char_traitsIcESaIcEE5emptyEv(ptr noundef nonnull align 8 dereferenceable(32) %0) #3 align 2 {
  %2 = alloca ptr, align 8
  store ptr %0, ptr %2, align 8, !tbaa !17
  %3 = load ptr, ptr %2, align 8
  %4 = call noundef i64 @_ZNKSt7__cxx1112basic_stringIcSt11char_traitsIcESaIcEE4sizeEv(ptr noundef nonnull align 8 dereferenceable(32) %3) #14
  %5 = icmp eq i64 %4, 0
  ret i1 %5
}

; Function Attrs: mustprogress nounwind uwtable
define linkonce_odr noundef zeroext i1 @_ZNK4base8FilePath5emptyEv(ptr noundef nonnull align 8 dereferenceable(32) %0) #3 comdat align 2 {
  %2 = alloca ptr, align 8
  store ptr %0, ptr %2, align 8, !tbaa !3
  %3 = load ptr, ptr %2, align 8
  %4 = getelementptr inbounds nuw %"class.base::FilePath", ptr %3, i32 0, i32 0
  %5 = call noundef zeroext i1 @_ZNKSt7__cxx1112basic_stringIcSt11char_traitsIcESaIcEE5emptyEv(ptr noundef nonnull align 8 dereferenceable(32) %4) #14
  ret i1 %5
}

; Function Attrs: mustprogress uwtable
define noundef zeroext i1 @_ZN4base16IsDirectoryEmptyERKNS_8FilePathE(ptr noundef nonnull align 8 dereferenceable(32) %0) #0 personality ptr @__gxx_personality_v0 {
  %2 = alloca i1, align 1
  %3 = alloca ptr, align 8
  %4 = alloca %"class.base::FileEnumerator", align 8
  %5 = alloca %"class.base::FilePath", align 8
  %6 = alloca ptr, align 8
  %7 = alloca i32, align 4
  %8 = alloca i32, align 4
  store ptr %0, ptr %3, align 8, !tbaa !3
  call void @llvm.lifetime.start.p0(i64 184, ptr %4) #14
  %9 = load ptr, ptr %3, align 8, !tbaa !3
  call void @_ZN4base14FileEnumeratorC1ERKNS_8FilePathEbi(ptr noundef nonnull align 8 dereferenceable(184) %4, ptr noundef nonnull align 8 dereferenceable(32) %9, i1 noundef zeroext false, i32 noundef 3)
  call void @llvm.lifetime.start.p0(i64 32, ptr %5) #14
  invoke void @_ZN4base14FileEnumerator4NextEv(ptr dead_on_unwind writable sret(%"class.base::FilePath") align 8 %5, ptr noundef nonnull align 8 dereferenceable(184) %4)
          to label %10 unwind label %14

10:                                               ; preds = %1
  %11 = invoke noundef zeroext i1 @_ZNK4base8FilePath5emptyEv(ptr noundef nonnull align 8 dereferenceable(32) %5)
          to label %12 unwind label %18

12:                                               ; preds = %10
  call void @_ZN4base8FilePathD1Ev(ptr noundef nonnull align 8 dereferenceable(32) %5) #14
  call void @llvm.lifetime.end.p0(i64 32, ptr %5) #14
  br i1 %11, label %13, label %23

13:                                               ; preds = %12
  store i1 true, ptr %2, align 1
  store i32 1, ptr %8, align 4
  br label %24

14:                                               ; preds = %1
  %15 = landingpad { ptr, i32 }
          cleanup
  %16 = extractvalue { ptr, i32 } %15, 0
  store ptr %16, ptr %6, align 8
  %17 = extractvalue { ptr, i32 } %15, 1
  store i32 %17, ptr %7, align 4
  br label %22

18:                                               ; preds = %10
  %19 = landingpad { ptr, i32 }
          cleanup
  %20 = extractvalue { ptr, i32 } %19, 0
  store ptr %20, ptr %6, align 8
  %21 = extractvalue { ptr, i32 } %19, 1
  store i32 %21, ptr %7, align 4
  call void @_ZN4base8FilePathD1Ev(ptr noundef nonnull align 8 dereferenceable(32) %5) #14
  br label %22

22:                                               ; preds = %18, %14
  call void @llvm.lifetime.end.p0(i64 32, ptr %5) #14
  call void @_ZN4base14FileEnumeratorD1Ev(ptr noundef nonnull align 8 dereferenceable(184) %4) #14
  call void @llvm.lifetime.end.p0(i64 184, ptr %4) #14
  br label %26

23:                                               ; preds = %12
  store i1 false, ptr %2, align 1
  store i32 1, ptr %8, align 4
  br label %24

24:                                               ; preds = %23, %13
  call void @_ZN4base14FileEnumeratorD1Ev(ptr noundef nonnull align 8 dereferenceable(184) %4) #14
  call void @llvm.lifetime.end.p0(i64 184, ptr %4) #14
  %25 = load i1, ptr %2, align 1
  ret i1 %25

26:                                               ; preds = %22
  %27 = load ptr, ptr %6, align 8
  %28 = load i32, ptr %7, align 4
  %29 = insertvalue { ptr, i32 } poison, ptr %27, 0
  %30 = insertvalue { ptr, i32 } %29, i32 %28, 1
  resume { ptr, i32 } %30
}