; Function Attrs: mustprogress uwtable
define noundef zeroext i1 @_ZN4base16IsDirectoryEmptyERKNS_8FilePathE(ptr noundef nonnull align 8 dereferenceable(32) %0) local_unnamed_addr #0 personality ptr @__gxx_personality_v0 {
  %2 = alloca %"class.base::FileEnumerator", align 8
  %3 = alloca %"class.base::FilePath", align 8
  call void @llvm.lifetime.start.p0(i64 184, ptr nonnull %2) #16
  call void @_ZN4base14FileEnumeratorC1ERKNS_8FilePathEbi(ptr noundef nonnull align 8 dereferenceable(184) %2, ptr noundef nonnull align 8 dereferenceable(32) %0, i1 noundef zeroext false, i32 noundef 3)
  call void @llvm.lifetime.start.p0(i64 32, ptr nonnull %3) #16
  invoke void @_ZN4base14FileEnumerator4NextEv(ptr dead_on_unwind nonnull writable sret(%"class.base::FilePath") align 8 %3, ptr noundef nonnull align 8 dereferenceable(184) %2)
          to label %4 unwind label %8

4:                                                ; preds = %1
  %5 = getelementptr inbounds nuw i8, ptr %3, i64 8
  %6 = load i64, ptr %5, align 8, !tbaa !3
  %7 = icmp eq i64 %6, 0
  call void @_ZN4base8FilePathD1Ev(ptr noundef nonnull align 8 dereferenceable(32) %3) #16
  call void @llvm.lifetime.end.p0(i64 32, ptr nonnull %3) #16
  call void @_ZN4base14FileEnumeratorD1Ev(ptr noundef nonnull align 8 dereferenceable(184) %2) #16
  call void @llvm.lifetime.end.p0(i64 184, ptr nonnull %2) #16
  ret i1 %7

8:                                                ; preds = %1
  %9 = landingpad { ptr, i32 }
          cleanup
  call void @llvm.lifetime.end.p0(i64 32, ptr nonnull %3) #16
  call void @_ZN4base14FileEnumeratorD1Ev(ptr noundef nonnull align 8 dereferenceable(184) %2) #16
  call void @llvm.lifetime.end.p0(i64 184, ptr nonnull %2) #16
  resume { ptr, i32 } %9
}